; Function Attrs: null_pointer_is_valid sspstrong uwtable
define internal i32 @dissect_h245_T_octetString(ptr noundef %0, i32 noundef %1, ptr noundef %2, ptr noundef %3, i32 noundef %4) #1 {
  %6 = alloca ptr, align 8
  call void @llvm.lifetime.start.p0(i64 8, ptr nonnull %6) #13
  %7 = call i32 @dissect_per_octet_string(ptr noundef %0, i32 noundef %1, ptr noundef %2, ptr noundef %3, i32 noundef %4, i32 noundef -1, i32 noundef -1, i1 noundef zeroext false, ptr noundef nonnull %6)
  %8 = getelementptr inbounds nuw i8, ptr %2, i64 48
  %9 = load ptr, ptr %8, align 8
  %10 = call ptr @gef_ctx_get(ptr noundef %9)
  %.not = icmp eq ptr %10, null
  br i1 %.not, label %30, label %11

11:                                               ; preds = %5
  %12 = load i32, ptr @hf_h245_debug_dissector_try_string, align 4
  %13 = ashr i32 %7, 3
  %14 = getelementptr inbounds nuw i8, ptr %10, i64 40
  %15 = load ptr, ptr %14, align 8
  %16 = call ptr @proto_tree_add_string(ptr noundef %3, i32 noundef %12, ptr noundef %0, i32 noundef %13, i32 noundef 0, ptr noundef %15)
  %.not.i = icmp eq ptr %16, null
  br i1 %.not.i, label %proto_item_set_hidden.exit, label %17

17:                                               ; preds = %11
  %18 = getelementptr inbounds nuw i8, ptr %16, i64 40
  %19 = load ptr, ptr %18, align 8
  %.not5.i = icmp eq ptr %19, null
  br i1 %.not5.i, label %proto_item_set_hidden.exit, label %20

20:                                               ; preds = %17
  %21 = getelementptr inbounds nuw i8, ptr %19, i64 28
  %22 = load i32, ptr %21, align 4
  %23 = or i32 %22, 1
  store i32 %23, ptr %21, align 4
  br label %proto_item_set_hidden.exit

proto_item_set_hidden.exit:                       ; preds = %11, %17, %20
  %24 = load ptr, ptr @gef_content_dissector_table, align 8
  %25 = load ptr, ptr %14, align 8
  %26 = load ptr, ptr %6, align 8
  %27 = getelementptr inbounds nuw i8, ptr %2, i64 16
  %28 = load ptr, ptr %27, align 8
  %29 = call i32 @dissector_try_string_with_data(ptr noundef %24, ptr noundef %25, ptr noundef %26, ptr noundef %28, ptr noundef %3, i1 noundef zeroext true, ptr noundef %2)
  br label %30

30:                                               ; preds = %proto_item_set_hidden.exit, %5
  call void @llvm.lifetime.end.p0(i64 8, ptr nonnull %6) #13
  ret i32 %7
}